target datalayout = "e-m:e-p270:32:32-p271:32:32-p272:64:64-i64:64-i128:128-f80:128-n8:16:32:64-S128"
target triple = "x86_64-pc-linux-gnu"

%"class.icu_77::UObject" = type { ptr }
%"class.icu_77::Calendar" = type <{ %"class.icu_77::UObject", [24 x i32], [24 x i8], i8, [7 x i8], double, ptr, i8, i16, i8, i32, i32, i32, i8, i8, i16, [4 x i8], ptr, ptr }>

; Function Attrs: inlinehint mustprogress nounwind uwtable
define linkonce_odr noundef i32 @_ZNK6icu_778Calendar11internalGetE19UCalendarDateFields(ptr noundef nonnull align 8 dereferenceable(192) %0, i32 noundef %1) #2 comdat align 2 {
  %3 = alloca ptr, align 8
  %4 = alloca i32, align 4
  store ptr %0, ptr %3, align 8, !tbaa !37
  store i32 %1, ptr %4, align 4, !tbaa !106
  %5 = load ptr, ptr %3, align 8
  %6 = getelementptr inbounds nuw %"class.icu_77::Calendar", ptr %5, i32 0, i32 1
  %7 = load i32, ptr %4, align 4, !tbaa !106
  %8 = zext i32 %7 to i64
  %9 = getelementptr inbounds nuw [24 x i32], ptr %6, i64 0, i64 %8
  %10 = load i32, ptr %9, align 4, !tbaa !14
  ret i32 %10
}

; Function Attrs: mustprogress nounwind uwtable
define noundef i32 @_ZNK6icu_778Calendar11newestStampE19UCalendarDateFieldsS1_i(ptr noundef nonnull align 8 dereferenceable(192) %0, i32 noundef %1, i32 noundef %2, i32 noundef %3) #0 align 2 {
  %5 = alloca ptr, align 8
  %6 = alloca i32, align 4
  %7 = alloca i32, align 4
  %8 = alloca i32, align 4
  %9 = alloca i32, align 4
  %10 = alloca i32, align 4
  store ptr %0, ptr %5, align 8, !tbaa !37
  store i32 %1, ptr %6, align 4, !tbaa !106
  store i32 %2, ptr %7, align 4, !tbaa !106
  store i32 %3, ptr %8, align 4, !tbaa !14
  %11 = load ptr, ptr %5, align 8
  call void @llvm.lifetime.start.p0(i64 4, ptr %9) #16
  %12 = load i32, ptr %8, align 4, !tbaa !14
  store i32 %12, ptr %9, align 4, !tbaa !14
  call void @llvm.lifetime.start.p0(i64 4, ptr %10) #16
  %13 = load i32, ptr %6, align 4, !tbaa !106
  store i32 %13, ptr %10, align 4, !tbaa !14
  br label %14

14:                                               ; preds = %36, %4
  %15 = load i32, ptr %10, align 4, !tbaa !14
  %16 = load i32, ptr %7, align 4, !tbaa !106
  %17 = icmp sle i32 %15, %16
  br i1 %17, label %19, label %18

18:                                               ; preds = %14
  call void @llvm.lifetime.end.p0(i64 4, ptr %10) #16
  br label %39

19:                                               ; preds = %14
  %20 = getelementptr inbounds nuw %"class.icu_77::Calendar", ptr %11, i32 0, i32 2
  %21 = load i32, ptr %10, align 4, !tbaa !14
  %22 = sext i32 %21 to i64
  %23 = getelementptr inbounds [24 x i8], ptr %20, i64 0, i64 %22
  %24 = load i8, ptr %23, align 1, !tbaa !70
  %25 = sext i8 %24 to i32
  %26 = load i32, ptr %9, align 4, !tbaa !14
  %27 = icmp sgt i32 %25, %26
  br i1 %27, label %28, label %35

28:                                               ; preds = %19
  %29 = getelementptr inbounds nuw %"class.icu_77::Calendar", ptr %11, i32 0, i32 2
  %30 = load i32, ptr %10, align 4, !tbaa !14
  %31 = sext i32 %30 to i64
  %32 = getelementptr inbounds [24 x i8], ptr %29, i64 0, i64 %31
  %33 = load i8, ptr %32, align 1, !tbaa !70
  %34 = sext i8 %33 to i32
  store i32 %34, ptr %9, align 4, !tbaa !14
  br label %35

35:                                               ; preds = %28, %19
  br label %36

36:                                               ; preds = %35
  %37 = load i32, ptr %10, align 4, !tbaa !14
  %38 = add nsw i32 %37, 1
  store i32 %38, ptr %10, align 4, !tbaa !14
  br label %14, !llvm.loop !111

39:                                               ; preds = %18
  %40 = load i32, ptr %9, align 4, !tbaa !14
  call void @llvm.lifetime.end.p0(i64 4, ptr %9) #16
  ret i32 %40
}

; Function Attrs: mustprogress uwtable
define noundef i32 @_ZN6icu_778Calendar16computeJulianDayER10UErrorCode(ptr noundef nonnull align 8 dereferenceable(192) %0, ptr noundef nonnull align 4 dereferenceable(4) %1) #1 align 2 {
  %3 = alloca i32, align 4
  %4 = alloca ptr, align 8
  %5 = alloca ptr, align 8
  %6 = alloca i32, align 4
  %7 = alloca i32, align 4
  %8 = alloca i32, align 4
  store ptr %0, ptr %4, align 8, !tbaa !37
  store ptr %1, ptr %5, align 8, !tbaa !22
  %9 = load ptr, ptr %4, align 8
  %10 = getelementptr inbounds nuw %"class.icu_77::Calendar", ptr %9, i32 0, i32 2
  %11 = getelementptr inbounds nuw [24 x i8], ptr %10, i64 0, i64 20
  %12 = load i8, ptr %11, align 4, !tbaa !70
  %13 = sext i8 %12 to i32
  %14 = icmp sge i32 %13, 2
  br i1 %14, label %15, label %33

15:                                               ; preds = %2
  call void @llvm.lifetime.start.p0(i64 4, ptr %6) #16
  %16 = call noundef i32 @_ZNK6icu_778Calendar11newestStampE19UCalendarDateFieldsS1_i(ptr noundef nonnull align 8 dereferenceable(192) %9, i32 noundef 0, i32 noundef 8, i32 noundef 0)
  store i32 %16, ptr %6, align 4, !tbaa !14
  %17 = load i32, ptr %6, align 4, !tbaa !14
  %18 = call noundef i32 @_ZNK6icu_778Calendar11newestStampE19UCalendarDateFieldsS1_i(ptr noundef nonnull align 8 dereferenceable(192) %9, i32 noundef 17, i32 noundef 19, i32 noundef %17)
  store i32 %18, ptr %6, align 4, !tbaa !14
  %19 = load i32, ptr %6, align 4, !tbaa !14
  %20 = call noundef i32 @_ZNK6icu_778Calendar11newestStampE19UCalendarDateFieldsS1_i(ptr noundef nonnull align 8 dereferenceable(192) %9, i32 noundef 23, i32 noundef 23, i32 noundef %19)
  store i32 %20, ptr %6, align 4, !tbaa !14
  %21 = load i32, ptr %6, align 4, !tbaa !14
  %22 = getelementptr inbounds nuw %"class.icu_77::Calendar", ptr %9, i32 0, i32 2
  %23 = getelementptr inbounds nuw [24 x i8], ptr %22, i64 0, i64 20
  %24 = load i8, ptr %23, align 4, !tbaa !70
  %25 = sext i8 %24 to i32
  %26 = icmp sle i32 %21, %25
  br i1 %26, label %27, label %29

27:                                               ; preds = %15
  %28 = call noundef i32 @_ZNK6icu_778Calendar11internalGetE19UCalendarDateFields(ptr noundef nonnull align 8 dereferenceable(192) %9, i32 noundef 20)
  store i32 %28, ptr %3, align 4
  store i32 1, ptr %7, align 4
  br label %30

29:                                               ; preds = %15
  store i32 0, ptr %7, align 4
  br label %30

30:                                               ; preds = %29, %27
  call void @llvm.lifetime.end.p0(i64 4, ptr %6) #16
  %31 = load i32, ptr %7, align 4
  switch i32 %31, label %51 [
    i32 0, label %32
    i32 1, label %49
  ]

32:                                               ; preds = %30
  br label %33

33:                                               ; preds = %32, %2
  call void @llvm.lifetime.start.p0(i64 4, ptr %8) #16
  %34 = load ptr, ptr %9, align 8, !tbaa !25
  %35 = getelementptr inbounds ptr, ptr %34, i64 46
  %36 = load ptr, ptr %35, align 8
  %37 = call noundef ptr %36(ptr noundef nonnull align 8 dereferenceable(192) %9)
  %38 = call noundef i32 @_ZNK6icu_778Calendar13resolveFieldsEPA12_A8_Ki(ptr noundef nonnull align 8 dereferenceable(192) %9, ptr noundef %37)
  store i32 %38, ptr %8, align 4, !tbaa !106
  %39 = load i32, ptr %8, align 4, !tbaa !106
  %40 = icmp eq i32 %39, 24
  br i1 %40, label %41, label %42

41:                                               ; preds = %33
  store i32 5, ptr %8, align 4, !tbaa !106
  br label %42

42:                                               ; preds = %41, %33
  %43 = load i32, ptr %8, align 4, !tbaa !106
  %44 = load ptr, ptr %5, align 8, !tbaa !22
  %45 = load ptr, ptr %9, align 8, !tbaa !25
  %46 = getelementptr inbounds ptr, ptr %45, i64 43
  %47 = load ptr, ptr %46, align 8
  %48 = call noundef i32 %47(ptr noundef nonnull align 8 dereferenceable(192) %9, i32 noundef %43, ptr noundef nonnull align 4 dereferenceable(4) %44)
  store i32 %48, ptr %3, align 4
  store i32 1, ptr %7, align 4
  call void @llvm.lifetime.end.p0(i64 4, ptr %8) #16
  br label %49

49:                                               ; preds = %42, %30
  %50 = load i32, ptr %3, align 4
  ret i32 %50

51:                                               ; preds = %30
  unreachable
}