; Function Attrs: mustprogress uwtable
define noundef i32 @_ZN6icu_778Calendar16computeJulianDayER10UErrorCode(ptr noundef nonnull align 8 dereferenceable(192) %0, ptr noundef nonnull align 4 dereferenceable(4) %1) local_unnamed_addr #1 align 2 {
  %3 = getelementptr inbounds nuw i8, ptr %0, i64 124
  %4 = load i8, ptr %3, align 4, !tbaa !47
  %5 = icmp sgt i8 %4, 1
  br i1 %5, label %6, label %.thread

6:                                                ; preds = %2
  %7 = getelementptr inbounds nuw i8, ptr %0, i64 104
  br label %8

8:                                                ; preds = %8, %6
  %indvars.iv.i = phi i64 [ 0, %6 ], [ %indvars.iv.next.i, %8 ]
  %.0912.i = phi i32 [ 0, %6 ], [ %spec.select.i, %8 ]
  %9 = getelementptr inbounds nuw [24 x i8], ptr %7, i64 0, i64 %indvars.iv.i
  %10 = load i8, ptr %9, align 1, !tbaa !47
  %11 = sext i8 %10 to i32
  %spec.select.i = tail call i32 @llvm.smax.i32(i32 %.0912.i, i32 %11)
  %indvars.iv.next.i = add nuw nsw i64 %indvars.iv.i, 1
  %exitcond = icmp eq i64 %indvars.iv.next.i, 9
  br i1 %exitcond, label %_ZNK6icu_778Calendar11newestStampE19UCalendarDateFieldsS1_i.exit, label %8, !llvm.loop !70

_ZNK6icu_778Calendar11newestStampE19UCalendarDateFieldsS1_i.exit: ; preds = %8, %_ZNK6icu_778Calendar11newestStampE19UCalendarDateFieldsS1_i.exit
  %indvars.iv.i9 = phi i64 [ %indvars.iv.next.i12, %_ZNK6icu_778Calendar11newestStampE19UCalendarDateFieldsS1_i.exit ], [ 17, %8 ]
  %.0912.i10 = phi i32 [ %spec.select.i11, %_ZNK6icu_778Calendar11newestStampE19UCalendarDateFieldsS1_i.exit ], [ %spec.select.i, %8 ]
  %12 = getelementptr inbounds nuw [24 x i8], ptr %7, i64 0, i64 %indvars.iv.i9
  %13 = load i8, ptr %12, align 1, !tbaa !47
  %14 = sext i8 %13 to i32
  %spec.select.i11 = tail call i32 @llvm.smax.i32(i32 %.0912.i10, i32 %14)
  %indvars.iv.next.i12 = add nuw nsw i64 %indvars.iv.i9, 1
  %exitcond25 = icmp eq i64 %indvars.iv.next.i12, 20
  br i1 %exitcond25, label %_ZNK6icu_778Calendar11newestStampE19UCalendarDateFieldsS1_i.exit15.preheader, label %_ZNK6icu_778Calendar11newestStampE19UCalendarDateFieldsS1_i.exit, !llvm.loop !70

_ZNK6icu_778Calendar11newestStampE19UCalendarDateFieldsS1_i.exit15.preheader: ; preds = %_ZNK6icu_778Calendar11newestStampE19UCalendarDateFieldsS1_i.exit
  %15 = getelementptr inbounds nuw i8, ptr %0, i64 127
  %16 = load i8, ptr %15, align 1, !tbaa !47
  %17 = sext i8 %16 to i32
  %spec.select.i18 = tail call i32 @llvm.smax.i32(i32 %spec.select.i11, i32 %17)
  %18 = zext nneg i8 %4 to i32
  %.not.not = icmp sgt i32 %spec.select.i18, %18
  br i1 %.not.not, label %.thread, label %19

19:                                               ; preds = %_ZNK6icu_778Calendar11newestStampE19UCalendarDateFieldsS1_i.exit15.preheader
  %20 = getelementptr inbounds nuw i8, ptr %0, i64 88
  %21 = load i32, ptr %20, align 8, !tbaa !12
  br label %32

.thread:                                          ; preds = %_ZNK6icu_778Calendar11newestStampE19UCalendarDateFieldsS1_i.exit15.preheader, %2
  %22 = load ptr, ptr %0, align 8, !tbaa !15
  %23 = getelementptr inbounds nuw i8, ptr %22, i64 368
  %24 = load ptr, ptr %23, align 8
  %25 = tail call noundef ptr %24(ptr noundef nonnull align 8 dereferenceable(192) %0)
  %26 = tail call noundef i32 @_ZNK6icu_778Calendar13resolveFieldsEPA12_A8_Ki(ptr noundef nonnull align 8 dereferenceable(192) %0, ptr noundef %25)
  %27 = icmp eq i32 %26, 24
  %spec.store.select = select i1 %27, i32 5, i32 %26
  %28 = load ptr, ptr %0, align 8, !tbaa !15
  %29 = getelementptr inbounds nuw i8, ptr %28, i64 344
  %30 = load ptr, ptr %29, align 8
  %31 = tail call noundef i32 %30(ptr noundef nonnull align 8 dereferenceable(192) %0, i32 noundef %spec.store.select, ptr noundef nonnull align 4 dereferenceable(4) %1)
  br label %32

32:                                               ; preds = %19, %.thread
  %.1 = phi i32 [ %21, %19 ], [ %31, %.thread ]
  ret i32 %.1
}